; Function Attrs: mustprogress uwtable
define noundef zeroext i1 @_ZN9benchmark15ParseStringFlagEPKcS1_PNSt7__cxx1112basic_stringIcSt11char_traitsIcESaIcEEE(ptr noundef %0, ptr noundef captures(address_is_null) %1, ptr noundef %2) local_unnamed_addr #3 {
  %4 = tail call noundef ptr @_ZN9benchmark14ParseFlagValueEPKcS1_b(ptr noundef %0, ptr noundef %1, i1 noundef zeroext false)
  %5 = icmp ne ptr %4, null
  br i1 %5, label %6, label %11

6:                                                ; preds = %3
  %7 = getelementptr inbounds nuw i8, ptr %2, i64 8
  %8 = load i64, ptr %7, align 8, !tbaa !14
  %9 = tail call noundef i64 @strlen(ptr noundef nonnull dereferenceable(1) %4) #21
  %10 = tail call noundef nonnull align 8 dereferenceable(32) ptr @_ZNSt7__cxx1112basic_stringIcSt11char_traitsIcESaIcEE10_M_replaceEmmPKcm(ptr noundef nonnull align 8 dereferenceable(32) %2, i64 noundef 0, i64 noundef %8, ptr noundef nonnull %4, i64 noundef %9)
  br label %11

11:                                               ; preds = %3, %6
  ret i1 %5
}